; Function Attrs: nounwind uwtable
define internal void @__cxx_global_array_dtor.79(ptr nocapture readnone %0) #13 section ".text.startup" {
  br label %2

2:                                                ; preds = %2, %1
  %3 = phi ptr [ getelementptr inbounds ([34 x %"class.vcg::ply::PropDescriptor"], ptr @_ZZN3vcg3tri2io11ImporterPLYI4MeshE8VertDescEiE2pv, i64 1, i64 0), %1 ], [ %4, %2 ]
  %4 = getelementptr inbounds i8, ptr %3, i64 -112
  %5 = getelementptr inbounds i8, ptr %3, i64 -80
  tail call void @_ZNSt7__cxx1112basic_stringIcSt11char_traitsIcESaIcEED1Ev(ptr noundef nonnull align 8 dereferenceable(32) %5) #34
  tail call void @_ZNSt7__cxx1112basic_stringIcSt11char_traitsIcESaIcEED1Ev(ptr noundef nonnull align 8 dereferenceable(32) %4) #34
  %6 = icmp eq ptr %4, @_ZZN3vcg3tri2io11ImporterPLYI4MeshE8VertDescEiE2pv
  br i1 %6, label %7, label %2

7:                                                ; preds = %2
  ret void
}